; Function Attrs: mustprogress uwtable
define internal fastcc void @_ZN4leanL18check_constant_valERKNS_11environmentERKNS_12constant_valERNS_12type_checkerE(ptr noundef nonnull align 8 dereferenceable(8) %0, ptr noundef nonnull readonly align 8 captures(none) dereferenceable(8) %1, ptr noundef nonnull align 8 dereferenceable(48) %2) unnamed_addr #0 personality ptr @__gxx_personality_v0 {
  %4 = alloca %"class.lean::list_ref", align 8
  %5 = alloca %"class.lean::expr", align 8
  %6 = alloca %"class.lean::expr", align 8
  %7 = load ptr, ptr %1, align 8, !tbaa !3
  %8 = getelementptr inbounds nuw i8, ptr %7, i64 8
  tail call fastcc void @_ZN4leanL10check_nameERKNS_11environmentERKNS_4nameE(ptr noundef nonnull align 8 dereferenceable(8) %0, ptr noundef nonnull align 8 dereferenceable(8) %8)
  %9 = load ptr, ptr %1, align 8, !tbaa !3
  %10 = getelementptr inbounds nuw i8, ptr %9, i64 16
  %11 = load ptr, ptr %10, align 8, !tbaa !3
  store ptr %11, ptr %4, align 8, !tbaa !3
  %12 = ptrtoint ptr %11 to i64
  %13 = and i64 %12, 1
  %.not.i.i.i = icmp eq i64 %13, 0
  br i1 %.not.i.i.i, label %14, label %_ZN4lean8list_refINS_4nameEEC2ERKS2_.exit

14:                                               ; preds = %3
  %.val.i.i.i.i = load i32, ptr %11, align 4, !tbaa !8
  %15 = icmp sgt i32 %.val.i.i.i.i, 0
  br i1 %15, label %16, label %18, !prof !11

16:                                               ; preds = %14
  %17 = add nuw nsw i32 %.val.i.i.i.i, 1
  store i32 %17, ptr %11, align 4, !tbaa !8
  br label %_ZN4lean8list_refINS_4nameEEC2ERKS2_.exit

18:                                               ; preds = %14
  %.not.i.i.i.i = icmp eq i32 %.val.i.i.i.i, 0
  br i1 %.not.i.i.i.i, label %_ZN4lean8list_refINS_4nameEEC2ERKS2_.exit, label %19

19:                                               ; preds = %18
  tail call void @lean_inc_ref_cold(ptr noundef nonnull %11)
  br label %_ZN4lean8list_refINS_4nameEEC2ERKS2_.exit

_ZN4lean8list_refINS_4nameEEC2ERKS2_.exit:        ; preds = %3, %16, %18, %19
  invoke fastcc void @_ZN4leanL28check_duplicated_univ_paramsERKNS_11environmentENS_8list_refINS_4nameEEE(ptr noundef nonnull align 8 dereferenceable(8) %0, ptr noundef %4)
          to label %20 unwind label %70

20:                                               ; preds = %_ZN4lean8list_refINS_4nameEEC2ERKS2_.exit
  %21 = load ptr, ptr %4, align 8, !tbaa !3
  %22 = ptrtoint ptr %21 to i64
  %23 = and i64 %22, 1
  %.not.i.i = icmp eq i64 %23, 0
  br i1 %.not.i.i, label %24, label %34

24:                                               ; preds = %20
  %25 = load i32, ptr %21, align 4, !tbaa !8
  %26 = icmp sgt i32 %25, 1
  br i1 %26, label %27, label %29, !prof !11

27:                                               ; preds = %24
  %28 = add nsw i32 %25, -1
  store i32 %28, ptr %21, align 4, !tbaa !8
  br label %34

29:                                               ; preds = %24
  %.not.i.i.i15 = icmp eq i32 %25, 0
  br i1 %.not.i.i.i15, label %34, label %30

30:                                               ; preds = %29
  invoke void @lean_dec_ref_cold(ptr noundef nonnull %21)
          to label %34 unwind label %31

31:                                               ; preds = %30
  %32 = landingpad { ptr, i32 }
          catch ptr null
  %33 = extractvalue { ptr, i32 } %32, 0
  tail call void @__clang_call_terminate(ptr %33) #23
  unreachable

34:                                               ; preds = %30, %29, %27, %20
  %35 = load ptr, ptr %1, align 8, !tbaa !3
  %36 = getelementptr inbounds nuw i8, ptr %35, i64 8
  %37 = getelementptr inbounds nuw i8, ptr %35, i64 24
  tail call void @_ZN4lean24check_no_metavar_no_fvarERKNS_11environmentERKNS_4nameERKNS_4exprE(ptr noundef nonnull align 8 dereferenceable(8) %0, ptr noundef nonnull align 8 dereferenceable(8) %36, ptr noundef nonnull align 8 dereferenceable(8) %37)
  call void @llvm.lifetime.start.p0(i64 8, ptr nonnull %5) #20
  %38 = load ptr, ptr %1, align 8, !tbaa !3
  %39 = getelementptr inbounds nuw i8, ptr %38, i64 24
  %40 = getelementptr inbounds nuw i8, ptr %38, i64 16
  call void @_ZN4lean12type_checker5checkERKNS_4exprERKNS_8list_refINS_4nameEEE(ptr dead_on_unwind nonnull writable sret(%"class.lean::expr") align 8 %5, ptr noundef nonnull align 8 dereferenceable(48) %2, ptr noundef nonnull align 8 dereferenceable(8) %39, ptr noundef nonnull align 8 dereferenceable(8) %40)
  %41 = load ptr, ptr %1, align 8, !tbaa !3
  %42 = getelementptr inbounds nuw i8, ptr %41, i64 24
  invoke void @_ZN4lean12type_checker11ensure_sortERKNS_4exprES3_(ptr dead_on_unwind nonnull writable sret(%"class.lean::expr") align 8 %6, ptr noundef nonnull align 8 dereferenceable(48) %2, ptr noundef nonnull align 8 dereferenceable(8) %5, ptr noundef nonnull align 8 dereferenceable(8) %42)
          to label %43 unwind label %72

43:                                               ; preds = %34
  %44 = load ptr, ptr %6, align 8, !tbaa !3
  %45 = ptrtoint ptr %44 to i64
  %46 = and i64 %45, 1
  %.not.i.i16 = icmp eq i64 %46, 0
  br i1 %.not.i.i16, label %47, label %_ZN4lean10object_refD2Ev.exit18

47:                                               ; preds = %43
  %48 = load i32, ptr %44, align 4, !tbaa !8
  %49 = icmp sgt i32 %48, 1
  br i1 %49, label %50, label %52, !prof !11

50:                                               ; preds = %47
  %51 = add nsw i32 %48, -1
  store i32 %51, ptr %44, align 4, !tbaa !8
  br label %_ZN4lean10object_refD2Ev.exit18

52:                                               ; preds = %47
  %.not.i.i.i17 = icmp eq i32 %48, 0
  br i1 %.not.i.i.i17, label %_ZN4lean10object_refD2Ev.exit18, label %53

53:                                               ; preds = %52
  invoke void @lean_dec_ref_cold(ptr noundef nonnull %44)
          to label %_ZN4lean10object_refD2Ev.exit18 unwind label %54

54:                                               ; preds = %53
  %55 = landingpad { ptr, i32 }
          catch ptr null
  %56 = extractvalue { ptr, i32 } %55, 0
  call void @__clang_call_terminate(ptr %56) #23
  unreachable

_ZN4lean10object_refD2Ev.exit18:                  ; preds = %43, %50, %52, %53
  %57 = load ptr, ptr %5, align 8, !tbaa !3
  %58 = ptrtoint ptr %57 to i64
  %59 = and i64 %58, 1
  %.not.i.i19 = icmp eq i64 %59, 0
  br i1 %.not.i.i19, label %60, label %_ZN4lean10object_refD2Ev.exit21

60:                                               ; preds = %_ZN4lean10object_refD2Ev.exit18
  %61 = load i32, ptr %57, align 4, !tbaa !8
  %62 = icmp sgt i32 %61, 1
  br i1 %62, label %63, label %65, !prof !11

63:                                               ; preds = %60
  %64 = add nsw i32 %61, -1
  store i32 %64, ptr %57, align 4, !tbaa !8
  br label %_ZN4lean10object_refD2Ev.exit21

65:                                               ; preds = %60
  %.not.i.i.i20 = icmp eq i32 %61, 0
  br i1 %.not.i.i.i20, label %_ZN4lean10object_refD2Ev.exit21, label %66

66:                                               ; preds = %65
  invoke void @lean_dec_ref_cold(ptr noundef nonnull %57)
          to label %_ZN4lean10object_refD2Ev.exit21 unwind label %67

67:                                               ; preds = %66
  %68 = landingpad { ptr, i32 }
          catch ptr null
  %69 = extractvalue { ptr, i32 } %68, 0
  call void @__clang_call_terminate(ptr %69) #23
  unreachable

_ZN4lean10object_refD2Ev.exit21:                  ; preds = %_ZN4lean10object_refD2Ev.exit18, %63, %65, %66
  call void @llvm.lifetime.end.p0(i64 8, ptr nonnull %5) #20
  ret void

70:                                               ; preds = %_ZN4lean8list_refINS_4nameEEC2ERKS2_.exit
  %71 = landingpad { ptr, i32 }
          cleanup
  call void @_ZN4lean10object_refD2Ev(ptr noundef nonnull align 8 dereferenceable(8) %4) #20
  br label %74

72:                                               ; preds = %34
  %73 = landingpad { ptr, i32 }
          cleanup
  call void @_ZN4lean10object_refD2Ev(ptr noundef nonnull align 8 dereferenceable(8) %5) #20
  call void @llvm.lifetime.end.p0(i64 8, ptr nonnull %5) #20
  br label %74

74:                                               ; preds = %72, %70
  %.pn = phi { ptr, i32 } [ %73, %72 ], [ %71, %70 ]
  resume { ptr, i32 } %.pn
}